; Function Attrs: mustprogress nofree norecurse nosync nounwind willreturn memory(argmem: write) uwtable
define hidden void @_ZN5zxing6qrcode12QRCodeReader14setReaderStateENS0_8Detector13DetectorStateE(ptr noundef nonnull writeonly align 8 captures(none) dereferenceable(148) %0, i32 noundef %1) local_unnamed_addr #10 align 2 {
  %switch.tableidx = add i32 %1, -10
  %3 = icmp ult i32 %switch.tableidx, 3
  br i1 %3, label %.sink.split, label %5

.sink.split:                                      ; preds = %2
  %4 = getelementptr inbounds nuw i8, ptr %0, i64 44
  store i32 %switch.tableidx, ptr %4, align 4, !tbaa !22
  br label %5

5:                                                ; preds = %2, %.sink.split
  ret void
}